
build/genshin:     file format elf64-littleriscv


Disassembly of section .text:

0000000052020000 <_start>:
    52020000:	00000317          	auipc	t1,0x0
    52020004:	2ed30313          	addi	t1,t1,749 # 520202ed <__DATA_BEGIN__>
    52020008:	00000397          	auipc	t2,0x0
    5202000c:	2e838393          	addi	t2,t2,744 # 520202f0 <__BSS_END__>
    52020010:	006002b3          	add	t0,zero,t1

0000000052020014 <LC>:
    52020014:	0072be33          	sltu	t3,t0,t2
    52020018:	01c00663          	beq	zero,t3,52020024 <LE>
    5202001c:	0002a023          	sw	zero,0(t0)
    52020020:	0291                	addi	t0,t0,4
    52020022:	bfcd                	j	52020014 <LC>

0000000052020024 <LE>:
    52020024:	1141                	addi	sp,sp,-16
    52020026:	e406                	sd	ra,8(sp)
    52020028:	e022                	sd	s0,0(sp)
    5202002a:	840a                	mv	s0,sp
    5202002c:	0c6000ef          	jal	ra,520200f2 <main>
    52020030:	8122                	mv	sp,s0
    52020032:	6402                	ld	s0,0(sp)
    52020034:	60a2                	ld	ra,8(sp)
    52020036:	0141                	addi	sp,sp,16
    52020038:	8082                	ret

000000005202003a <loop>:
    5202003a:	10500073          	wfi
    5202003e:	bff5                	j	5202003a <loop>
	...

0000000052020042 <call_jmptab>:
    52020042:	715d                	addi	sp,sp,-80
    52020044:	e486                	sd	ra,72(sp)
    52020046:	e0a2                	sd	s0,64(sp)
    52020048:	0880                	addi	s0,sp,80
    5202004a:	fca43c23          	sd	a0,-40(s0)
    5202004e:	fcb43823          	sd	a1,-48(s0)
    52020052:	fcc43423          	sd	a2,-56(s0)
    52020056:	fcd43023          	sd	a3,-64(s0)
    5202005a:	fae43c23          	sd	a4,-72(s0)
    5202005e:	faf43823          	sd	a5,-80(s0)
    52020062:	fd843703          	ld	a4,-40(s0)
    52020066:	0a4007b7          	lui	a5,0xa400
    5202006a:	1781                	addi	a5,a5,-32
    5202006c:	97ba                	add	a5,a5,a4
    5202006e:	078e                	slli	a5,a5,0x3
    52020070:	639c                	ld	a5,0(a5)
    52020072:	fef43423          	sd	a5,-24(s0)
    52020076:	fe843783          	ld	a5,-24(s0)
    5202007a:	fef43023          	sd	a5,-32(s0)
    5202007e:	fe043783          	ld	a5,-32(s0)
    52020082:	fb043703          	ld	a4,-80(s0)
    52020086:	fb843683          	ld	a3,-72(s0)
    5202008a:	fc043603          	ld	a2,-64(s0)
    5202008e:	fc843583          	ld	a1,-56(s0)
    52020092:	fd043503          	ld	a0,-48(s0)
    52020096:	9782                	jalr	a5
    52020098:	87aa                	mv	a5,a0
    5202009a:	853e                	mv	a0,a5
    5202009c:	60a6                	ld	ra,72(sp)
    5202009e:	6406                	ld	s0,64(sp)
    520200a0:	6161                	addi	sp,sp,80
    520200a2:	8082                	ret

00000000520200a4 <bios_putstr>:
    520200a4:	1101                	addi	sp,sp,-32
    520200a6:	ec06                	sd	ra,24(sp)
    520200a8:	e822                	sd	s0,16(sp)
    520200aa:	1000                	addi	s0,sp,32
    520200ac:	fea43423          	sd	a0,-24(s0)
    520200b0:	fe843583          	ld	a1,-24(s0)
    520200b4:	4781                	li	a5,0
    520200b6:	4701                	li	a4,0
    520200b8:	4681                	li	a3,0
    520200ba:	4601                	li	a2,0
    520200bc:	4501                	li	a0,0
    520200be:	f85ff0ef          	jal	ra,52020042 <call_jmptab>
    520200c2:	0001                	nop
    520200c4:	60e2                	ld	ra,24(sp)
    520200c6:	6442                	ld	s0,16(sp)
    520200c8:	6105                	addi	sp,sp,32
    520200ca:	8082                	ret

00000000520200cc <bios_getchar>:
    520200cc:	1141                	addi	sp,sp,-16
    520200ce:	e406                	sd	ra,8(sp)
    520200d0:	e022                	sd	s0,0(sp)
    520200d2:	0800                	addi	s0,sp,16
    520200d4:	4781                	li	a5,0
    520200d6:	4701                	li	a4,0
    520200d8:	4681                	li	a3,0
    520200da:	4601                	li	a2,0
    520200dc:	4581                	li	a1,0
    520200de:	4509                	li	a0,2
    520200e0:	f63ff0ef          	jal	ra,52020042 <call_jmptab>
    520200e4:	87aa                	mv	a5,a0
    520200e6:	2781                	sext.w	a5,a5
    520200e8:	853e                	mv	a0,a5
    520200ea:	60a2                	ld	ra,8(sp)
    520200ec:	6402                	ld	s0,0(sp)
    520200ee:	0141                	addi	sp,sp,16
    520200f0:	8082                	ret

00000000520200f2 <main>:
    520200f2:	1101                	addi	sp,sp,-32
    520200f4:	ec06                	sd	ra,24(sp)
    520200f6:	e822                	sd	s0,16(sp)
    520200f8:	1000                	addi	s0,sp,32
    520200fa:	00000517          	auipc	a0,0x0
    520200fe:	08650513          	addi	a0,a0,134 # 52020180 <main+0x8e>
    52020102:	fa3ff0ef          	jal	ra,520200a4 <bios_putstr>
    52020106:	00000517          	auipc	a0,0x0
    5202010a:	08a50513          	addi	a0,a0,138 # 52020190 <main+0x9e>
    5202010e:	f97ff0ef          	jal	ra,520200a4 <bios_putstr>
    52020112:	00000517          	auipc	a0,0x0
    52020116:	0c650513          	addi	a0,a0,198 # 520201d8 <main+0xe6>
    5202011a:	f8bff0ef          	jal	ra,520200a4 <bios_putstr>
    5202011e:	00000517          	auipc	a0,0x0
    52020122:	06250513          	addi	a0,a0,98 # 52020180 <main+0x8e>
    52020126:	f7fff0ef          	jal	ra,520200a4 <bios_putstr>
    5202012a:	00000517          	auipc	a0,0x0
    5202012e:	0e650513          	addi	a0,a0,230 # 52020210 <main+0x11e>
    52020132:	f73ff0ef          	jal	ra,520200a4 <bios_putstr>
    52020136:	00000517          	auipc	a0,0x0
    5202013a:	14a50513          	addi	a0,a0,330 # 52020280 <main+0x18e>
    5202013e:	f67ff0ef          	jal	ra,520200a4 <bios_putstr>
    52020142:	0001                	nop
    52020144:	f89ff0ef          	jal	ra,520200cc <bios_getchar>
    52020148:	87aa                	mv	a5,a0
    5202014a:	fef42623          	sw	a5,-20(s0)
    5202014e:	fec42783          	lw	a5,-20(s0)
    52020152:	0007871b          	sext.w	a4,a5
    52020156:	57fd                	li	a5,-1
    52020158:	fef706e3          	beq	a4,a5,52020144 <main+0x52>
    5202015c:	fec42783          	lw	a5,-20(s0)
    52020160:	0007871b          	sext.w	a4,a5
    52020164:	06b00793          	li	a5,107
    52020168:	00f71463          	bne	a4,a5,52020170 <main+0x7e>
    5202016c:	4785                	li	a5,1
    5202016e:	a011                	j	52020172 <main+0x80>
    52020170:	4781                	li	a5,0
    52020172:	853e                	mv	a0,a5
    52020174:	60e2                	ld	ra,24(sp)
    52020176:	6442                	ld	s0,16(sp)
    52020178:	6105                	addi	sp,sp,32
    5202017a:	8082                	ret
